target datalayout = "e-m:e-p270:32:32-p271:32:32-p272:64:64-i64:64-i128:128-f80:128-n8:16:32:64-S128"
target triple = "x86_64-pc-linux-gnu"

%struct.GlobalContext = type { %struct.HTable, ptr, ptr, ptr, ptr, ptr, ptr, ptr, ptr, i8, i32, i32, i32, ptr, ptr, %struct.HTable, %struct.HTable, %struct.Module_, %struct.DeclTable, %struct.DeclTable, %struct.Path_, ptr, ptr, ptr, ptr, ptr, ptr, ptr, [65536 x ptr], ptr, ptr, ptr }
%struct.HTable = type { i32, ptr }
%struct.Module_ = type { ptr, ptr, ptr, i16, i32, ptr, %struct.HTable, ptr, ptr, ptr, ptr, ptr, ptr, ptr, ptr, ptr }
%struct.DeclTable = type { i32, i32, i32, ptr }
%struct.Path_ = type { %union.SourceSpan, ptr, i32 }
%union.SourceSpan = type { i64 }
%struct.GenContext_ = type { i8, ptr, ptr, ptr, ptr, ptr, ptr, ptr, ptr, ptr, ptr, ptr, ptr, ptr, ptr, ptr, ptr, ptr, ptr, ptr, ptr, ptr, ptr, ptr, ptr, ptr, ptr, ptr, ptr, ptr, ptr, ptr, ptr, %struct.anon.85, i32, i32, %struct.DebugContext, ptr, ptr, ptr, %struct.BEValue, i8, %union.SourceSpan, ptr, ptr, ptr, ptr }
%struct.anon.85 = type { ptr, ptr, ptr }
%struct.DebugContext = type { i16, ptr, ptr, %struct.DebugFile_, ptr, ptr, ptr, ptr }
%struct.DebugFile_ = type { i16, ptr }
%struct.BEValue = type { i8, i32, ptr, ptr, ptr }
%struct.Type_ = type { i32, ptr, ptr, ptr, %union.anon.94, ptr, ptr, %union.anon.96 }
%union.anon.94 = type { ptr }
%union.anon.96 = type { %struct.TypeFunction }
%struct.TypeFunction = type { ptr, ptr, ptr }
%struct.Decl_ = type { ptr, ptr, %union.SourceSpan, i64, %union.anon, i32, %union.anon.0, i64, ptr, ptr, ptr, %union.anon.1 }
%union.anon = type { ptr }
%union.anon.0 = type { i16 }
%union.anon.1 = type { %struct.FuncDecl }
%struct.FuncDecl = type { i32, [4 x i8], %struct.Signature_, i32, i32, %union.anon.8 }
%struct.Signature_ = type <{ %struct.CalleeAttributes, i16, i8, i32, i32, [4 x i8], ptr }>
%struct.CalleeAttributes = type { i8 }
%union.anon.8 = type { %struct.anon.9 }
%struct.anon.9 = type { i16, %union.anon.10 }
%union.anon.10 = type { ptr }
%struct.VarDecl_ = type { i32, i32, %union.anon.14, %union.anon.15 }
%union.anon.14 = type { ptr }
%union.anon.15 = type { %struct.anon.16 }
%struct.anon.16 = type { ptr, %union.SourceSpan }
%struct.anon.17 = type { ptr, %union.anon.18 }
%union.anon.18 = type { ptr }

@type_anyfault = external global ptr, align 8
@.str.13 = private unnamed_addr constant [12 x i8] c"temp_global\00", align 1
@.str.14 = private unnamed_addr constant [3 x i8] c".f\00", align 1
@global_context = external global %struct.GlobalContext, align 8

; Function Attrs: nounwind uwtable
define dso_local void @llvm_set_global_tls(ptr noundef %0) #0 {
  %2 = alloca ptr, align 8
  %3 = alloca i32, align 4
  %4 = alloca ptr, align 8
  store ptr %0, ptr %2, align 8
  %5 = load ptr, ptr %2, align 8
  %6 = getelementptr inbounds %struct.Decl_, ptr %5, i32 0, i32 11
  %7 = load i32, ptr %6, align 8
  %8 = lshr i32 %7, 18
  %9 = and i32 %8, 1
  %10 = trunc i32 %9 to i1
  br i1 %10, label %12, label %11

11:                                               ; preds = %1
  br label %42

12:                                               ; preds = %1
  store i32 1, ptr %3, align 4
  %13 = load ptr, ptr %2, align 8
  %14 = getelementptr inbounds %struct.Decl_, ptr %13, i32 0, i32 11
  %15 = load i32, ptr %14, align 8
  %16 = lshr i32 %15, 17
  %17 = and i32 %16, 1
  %18 = trunc i32 %17 to i1
  br i1 %18, label %23, label %19

19:                                               ; preds = %12
  %20 = load ptr, ptr %2, align 8
  %21 = call zeroext i1 @decl_is_local(ptr noundef %20)
  br i1 %21, label %22, label %23

22:                                               ; preds = %19
  store i32 2, ptr %3, align 4
  br label %23

23:                                               ; preds = %22, %19, %12
  %24 = load ptr, ptr %2, align 8
  %25 = getelementptr inbounds %struct.Decl_, ptr %24, i32 0, i32 4
  %26 = load ptr, ptr %25, align 8
  call void @LLVMSetThreadLocal(ptr noundef %26, i32 noundef 1)
  %27 = load ptr, ptr %2, align 8
  %28 = getelementptr inbounds %struct.Decl_, ptr %27, i32 0, i32 4
  %29 = load ptr, ptr %28, align 8
  %30 = load i32, ptr %3, align 4
  call void @LLVMSetThreadLocalMode(ptr noundef %29, i32 noundef %30)
  %31 = load ptr, ptr %2, align 8
  %32 = getelementptr inbounds %struct.Decl_, ptr %31, i32 0, i32 11
  %33 = getelementptr inbounds %struct.VarDecl_, ptr %32, i32 0, i32 3
  %34 = getelementptr inbounds %struct.anon.17, ptr %33, i32 0, i32 1
  %35 = load ptr, ptr %34, align 8
  store ptr %35, ptr %4, align 8
  %36 = load ptr, ptr %4, align 8
  %37 = icmp ne ptr %36, null
  br i1 %37, label %38, label %42

38:                                               ; preds = %23
  %39 = load ptr, ptr %4, align 8
  call void @LLVMSetThreadLocal(ptr noundef %39, i32 noundef 1)
  %40 = load ptr, ptr %4, align 8
  %41 = load i32, ptr %3, align 4
  call void @LLVMSetThreadLocalMode(ptr noundef %40, i32 noundef %41)
  br label %42

42:                                               ; preds = %38, %23, %11
  ret void
}

; Function Attrs: nounwind uwtable
define dso_local void @llvm_add_global_decl(ptr noundef %0, ptr noundef %1) #0 {
  %3 = alloca ptr, align 8
  %4 = alloca ptr, align 8
  %5 = alloca ptr, align 8
  %6 = alloca ptr, align 8
  %7 = alloca ptr, align 8
  %8 = alloca ptr, align 8
  %9 = alloca ptr, align 8
  %10 = alloca i32, align 4
  %11 = alloca ptr, align 8
  %12 = alloca ptr, align 8
  %13 = alloca ptr, align 8
  %14 = alloca ptr, align 8
  %15 = alloca i32, align 4
  %16 = alloca ptr, align 8
  %17 = alloca ptr, align 8
  %18 = alloca ptr, align 8
  %19 = alloca i32, align 4
  %20 = alloca ptr, align 8
  %21 = alloca ptr, align 8
  %22 = alloca ptr, align 8
  %23 = alloca ptr, align 8
  %24 = alloca i32, align 4
  %25 = alloca ptr, align 8
  %26 = alloca i1, align 1
  %27 = alloca ptr, align 8
  %28 = alloca i32, align 4
  %29 = alloca ptr, align 8
  %30 = alloca i32, align 4
  %31 = alloca ptr, align 8
  %32 = alloca ptr, align 8
  %33 = alloca ptr, align 8
  %34 = alloca ptr, align 8
  %35 = alloca i8, align 1
  %36 = alloca ptr, align 8
  store ptr %0, ptr %33, align 8
  store ptr %1, ptr %34, align 8
  %37 = load ptr, ptr %34, align 8
  store ptr %37, ptr %25, align 8
  %38 = load ptr, ptr %25, align 8
  %39 = getelementptr inbounds %struct.Decl_, ptr %38, i32 0, i32 8
  %40 = load ptr, ptr %39, align 8
  %41 = icmp ne ptr %40, null
  br i1 %41, label %42, label %47

42:                                               ; preds = %2
  %43 = load ptr, ptr %25, align 8
  %44 = getelementptr inbounds %struct.Decl_, ptr %43, i32 0, i32 8
  %45 = load ptr, ptr %44, align 8
  %46 = load ptr, ptr %45, align 8
  br label %49

47:                                               ; preds = %2
  %48 = load ptr, ptr getelementptr inbounds (%struct.GlobalContext, ptr @global_context, i32 0, i32 1), align 8
  br label %49

49:                                               ; preds = %47, %42
  %50 = phi ptr [ %46, %42 ], [ %48, %47 ]
  %51 = load ptr, ptr %33, align 8
  %52 = getelementptr inbounds %struct.GenContext_, ptr %51, i32 0, i32 37
  %53 = load ptr, ptr %52, align 8
  %54 = icmp eq ptr %50, %53
  %55 = zext i1 %54 to i8
  store i8 %55, ptr %35, align 1
  %56 = load i8, ptr %35, align 1
  %57 = trunc i8 %56 to i1
  br i1 %57, label %58, label %59

58:                                               ; preds = %49
  br label %64

59:                                               ; preds = %49
  %60 = load ptr, ptr %34, align 8
  store ptr %60, ptr %31, align 8
  %61 = load ptr, ptr %31, align 8
  %62 = getelementptr inbounds %struct.Decl_, ptr %61, i32 0, i32 1
  %63 = load ptr, ptr %62, align 8
  br label %64

64:                                               ; preds = %59, %58
  %65 = phi ptr [ @.str.13, %58 ], [ %63, %59 ]
  store ptr %65, ptr %36, align 8
  %66 = load ptr, ptr %33, align 8
  %67 = load ptr, ptr %36, align 8
  %68 = load ptr, ptr %34, align 8
  %69 = getelementptr inbounds %struct.Decl_, ptr %68, i32 0, i32 10
  %70 = load ptr, ptr %69, align 8
  %71 = load ptr, ptr %34, align 8
  %72 = getelementptr inbounds %struct.Decl_, ptr %71, i32 0, i32 5
  %73 = load i32, ptr %72, align 8
  store ptr %66, ptr %12, align 8
  store ptr %67, ptr %13, align 8
  store ptr %70, ptr %14, align 8
  store i32 %73, ptr %15, align 4
  %74 = load ptr, ptr %12, align 8
  %75 = load ptr, ptr %13, align 8
  %76 = load ptr, ptr %12, align 8
  %77 = load ptr, ptr %14, align 8
  store ptr %77, ptr %6, align 8
  %78 = load ptr, ptr %6, align 8
  %79 = icmp ne ptr %78, null
  br i1 %79, label %81, label %80

80:                                               ; preds = %64
  store ptr null, ptr %5, align 8
  br label %91

81:                                               ; preds = %64
  %82 = load ptr, ptr %6, align 8
  %83 = load i32, ptr %82, align 8
  %84 = icmp eq i32 %83, 40
  br i1 %84, label %85, label %89

85:                                               ; preds = %81
  %86 = load ptr, ptr %6, align 8
  %87 = getelementptr inbounds %struct.Type_, ptr %86, i32 0, i32 7
  %88 = load ptr, ptr %87, align 8
  store ptr %88, ptr %5, align 8
  br label %91

89:                                               ; preds = %81
  %90 = load ptr, ptr %6, align 8
  store ptr %90, ptr %5, align 8
  br label %91

91:                                               ; preds = %89, %85, %80
  %92 = load ptr, ptr %5, align 8
  %93 = call ptr @type_lowering(ptr noundef %92)
  %94 = call ptr @llvm_get_type(ptr noundef %76, ptr noundef %93) #7
  %95 = load i32, ptr %15, align 4
  store ptr %74, ptr %7, align 8
  store ptr %75, ptr %8, align 8
  store ptr %94, ptr %9, align 8
  store i32 %95, ptr %10, align 4
  %96 = load ptr, ptr %7, align 8
  %97 = getelementptr inbounds %struct.GenContext_, ptr %96, i32 0, i32 1
  %98 = load ptr, ptr %97, align 8
  %99 = load ptr, ptr %9, align 8
  %100 = load ptr, ptr %8, align 8
  %101 = call ptr @LLVMAddGlobal(ptr noundef %98, ptr noundef %99, ptr noundef %100) #7
  store ptr %101, ptr %11, align 8
  %102 = load ptr, ptr %11, align 8
  %103 = load i32, ptr %10, align 4
  %104 = icmp ne i32 %103, 0
  br i1 %104, label %105, label %107

105:                                              ; preds = %91
  %106 = load i32, ptr %10, align 4
  br label %113

107:                                              ; preds = %91
  %108 = load ptr, ptr %7, align 8
  %109 = getelementptr inbounds %struct.GenContext_, ptr %108, i32 0, i32 4
  %110 = load ptr, ptr %109, align 8
  %111 = load ptr, ptr %11, align 8
  %112 = call i32 @LLVMPreferredAlignmentOfGlobal(ptr noundef %110, ptr noundef %111) #7
  br label %113

113:                                              ; preds = %107, %105
  %114 = phi i32 [ %106, %105 ], [ %112, %107 ]
  call void @LLVMSetAlignment(ptr noundef %102, i32 noundef %114) #7
  %115 = load ptr, ptr %11, align 8
  %116 = load ptr, ptr %34, align 8
  %117 = getelementptr inbounds %struct.Decl_, ptr %116, i32 0, i32 4
  store ptr %115, ptr %117, align 8
  %118 = load ptr, ptr %34, align 8
  %119 = getelementptr inbounds %struct.Decl_, ptr %118, i32 0, i32 4
  %120 = load ptr, ptr %119, align 8
  %121 = load ptr, ptr %34, align 8
  %122 = getelementptr inbounds %struct.Decl_, ptr %121, i32 0, i32 5
  %123 = load i32, ptr %122, align 8
  store ptr %120, ptr %29, align 8
  store i32 %123, ptr %30, align 4
  %124 = load ptr, ptr %29, align 8
  %125 = load i32, ptr %30, align 4
  call void @LLVMSetAlignment(ptr noundef %124, i32 noundef %125) #7
  %126 = load i8, ptr %35, align 1
  %127 = trunc i8 %126 to i1
  br i1 %127, label %132, label %128

128:                                              ; preds = %113
  %129 = load ptr, ptr %34, align 8
  %130 = getelementptr inbounds %struct.Decl_, ptr %129, i32 0, i32 4
  %131 = load ptr, ptr %130, align 8
  call void @LLVMSetLinkage(ptr noundef %131, i32 noundef 0)
  br label %132

132:                                              ; preds = %128, %113
  %133 = load ptr, ptr %34, align 8
  %134 = getelementptr inbounds %struct.Decl_, ptr %133, i32 0, i32 11
  %135 = load i32, ptr %134, align 8
  %136 = and i32 %135, 255
  %137 = icmp eq i32 %136, 0
  br i1 %137, label %138, label %142

138:                                              ; preds = %132
  %139 = load ptr, ptr %34, align 8
  %140 = getelementptr inbounds %struct.Decl_, ptr %139, i32 0, i32 4
  %141 = load ptr, ptr %140, align 8
  call void @LLVMSetGlobalConstant(ptr noundef %141, i32 noundef 1)
  br label %142

142:                                              ; preds = %138, %132
  %143 = load ptr, ptr %34, align 8
  %144 = getelementptr inbounds %struct.Decl_, ptr %143, i32 0, i32 10
  %145 = load ptr, ptr %144, align 8
  store ptr %145, ptr %27, align 8
  %146 = load ptr, ptr %27, align 8
  %147 = icmp ne ptr %146, null
  br i1 %147, label %149, label %148

148:                                              ; preds = %142
  store i1 false, ptr %26, align 1
  br label %162

149:                                              ; preds = %142
  %150 = load ptr, ptr %27, align 8
  %151 = load i32, ptr %150, align 8
  store i32 %151, ptr %28, align 4
  %152 = load i32, ptr %28, align 4
  %153 = icmp eq i32 %152, 31
  br i1 %153, label %154, label %159

154:                                              ; preds = %149
  %155 = load ptr, ptr %27, align 8
  %156 = getelementptr inbounds %struct.Type_, ptr %155, i32 0, i32 1
  %157 = load ptr, ptr %156, align 8
  %158 = load i32, ptr %157, align 8
  store i32 %158, ptr %28, align 4
  br label %159

159:                                              ; preds = %154, %149
  %160 = load i32, ptr %28, align 4
  %161 = icmp eq i32 %160, 40
  store i1 %161, ptr %26, align 1
  br label %162

162:                                              ; preds = %159, %148
  %163 = load i1, ptr %26, align 1
  br i1 %163, label %164, label %218

164:                                              ; preds = %162
  call void @scratch_buffer_clear()
  %165 = load ptr, ptr %34, align 8
  store ptr %165, ptr %32, align 8
  %166 = load ptr, ptr %32, align 8
  %167 = getelementptr inbounds %struct.Decl_, ptr %166, i32 0, i32 1
  %168 = load ptr, ptr %167, align 8
  call void @scratch_buffer_append(ptr noundef %168)
  call void @scratch_buffer_append(ptr noundef @.str.14)
  %169 = load ptr, ptr %33, align 8
  %170 = call ptr @scratch_buffer_to_string()
  %171 = load ptr, ptr @type_anyfault, align 8
  store ptr %169, ptr %21, align 8
  store ptr %170, ptr %22, align 8
  store ptr %171, ptr %23, align 8
  store i32 0, ptr %24, align 4
  %172 = load ptr, ptr %21, align 8
  %173 = load ptr, ptr %22, align 8
  %174 = load ptr, ptr %21, align 8
  %175 = load ptr, ptr %23, align 8
  store ptr %175, ptr %4, align 8
  %176 = load ptr, ptr %4, align 8
  %177 = icmp ne ptr %176, null
  br i1 %177, label %179, label %178

178:                                              ; preds = %164
  store ptr null, ptr %3, align 8
  br label %189

179:                                              ; preds = %164
  %180 = load ptr, ptr %4, align 8
  %181 = load i32, ptr %180, align 8
  %182 = icmp eq i32 %181, 40
  br i1 %182, label %183, label %187

183:                                              ; preds = %179
  %184 = load ptr, ptr %4, align 8
  %185 = getelementptr inbounds %struct.Type_, ptr %184, i32 0, i32 7
  %186 = load ptr, ptr %185, align 8
  store ptr %186, ptr %3, align 8
  br label %189

187:                                              ; preds = %179
  %188 = load ptr, ptr %4, align 8
  store ptr %188, ptr %3, align 8
  br label %189

189:                                              ; preds = %187, %183, %178
  %190 = load ptr, ptr %3, align 8
  %191 = call ptr @type_lowering(ptr noundef %190)
  %192 = call ptr @llvm_get_type(ptr noundef %174, ptr noundef %191) #7
  %193 = load i32, ptr %24, align 4
  store ptr %172, ptr %16, align 8
  store ptr %173, ptr %17, align 8
  store ptr %192, ptr %18, align 8
  store i32 %193, ptr %19, align 4
  %194 = load ptr, ptr %16, align 8
  %195 = getelementptr inbounds %struct.GenContext_, ptr %194, i32 0, i32 1
  %196 = load ptr, ptr %195, align 8
  %197 = load ptr, ptr %18, align 8
  %198 = load ptr, ptr %17, align 8
  %199 = call ptr @LLVMAddGlobal(ptr noundef %196, ptr noundef %197, ptr noundef %198) #7
  store ptr %199, ptr %20, align 8
  %200 = load ptr, ptr %20, align 8
  %201 = load i32, ptr %19, align 4
  %202 = icmp ne i32 %201, 0
  br i1 %202, label %203, label %205

203:                                              ; preds = %189
  %204 = load i32, ptr %19, align 4
  br label %211

205:                                              ; preds = %189
  %206 = load ptr, ptr %16, align 8
  %207 = getelementptr inbounds %struct.GenContext_, ptr %206, i32 0, i32 4
  %208 = load ptr, ptr %207, align 8
  %209 = load ptr, ptr %20, align 8
  %210 = call i32 @LLVMPreferredAlignmentOfGlobal(ptr noundef %208, ptr noundef %209) #7
  br label %211

211:                                              ; preds = %205, %203
  %212 = phi i32 [ %204, %203 ], [ %210, %205 ]
  call void @LLVMSetAlignment(ptr noundef %200, i32 noundef %212) #7
  %213 = load ptr, ptr %20, align 8
  %214 = load ptr, ptr %34, align 8
  %215 = getelementptr inbounds %struct.Decl_, ptr %214, i32 0, i32 11
  %216 = getelementptr inbounds %struct.VarDecl_, ptr %215, i32 0, i32 3
  %217 = getelementptr inbounds %struct.anon.17, ptr %216, i32 0, i32 1
  store ptr %213, ptr %217, align 8
  br label %218

218:                                              ; preds = %211, %162
  %219 = load ptr, ptr %34, align 8
  call void @llvm_set_global_tls(ptr noundef %219)
  ret void
}