; Function Attrs: nounwind uwtable
define dso_local void @llvm_add_global_decl(ptr noundef %0, ptr noundef %1) local_unnamed_addr #0 {
  %3 = getelementptr inbounds i8, ptr %1, i64 56
  %4 = load ptr, ptr %3, align 8
  %.not = icmp eq ptr %4, null
  %. = select i1 %.not, ptr getelementptr inbounds (%struct.GlobalContext, ptr @global_context, i64 0, i32 1), ptr %4
  %5 = load ptr, ptr %., align 8
  %6 = getelementptr inbounds i8, ptr %0, i64 368
  %7 = load ptr, ptr %6, align 8
  %8 = icmp eq ptr %5, %7
  br i1 %8, label %12, label %9

9:                                                ; preds = %2
  %10 = getelementptr inbounds i8, ptr %1, i64 8
  %11 = load ptr, ptr %10, align 8
  br label %12

12:                                               ; preds = %2, %9
  %13 = phi ptr [ %11, %9 ], [ @.str.13, %2 ]
  %14 = getelementptr inbounds i8, ptr %1, i64 72
  %15 = load ptr, ptr %14, align 8
  %16 = getelementptr inbounds i8, ptr %1, i64 40
  %17 = load i32, ptr %16, align 8
  %.not78 = icmp eq ptr %15, null
  br i1 %.not78, label %24, label %18

18:                                               ; preds = %12
  %19 = load i32, ptr %15, align 8
  %20 = icmp eq i32 %19, 40
  br i1 %20, label %21, label %24

21:                                               ; preds = %18
  %22 = getelementptr inbounds i8, ptr %15, i64 56
  %23 = load ptr, ptr %22, align 8
  br label %24

24:                                               ; preds = %18, %12, %21
  %.069 = phi ptr [ %23, %21 ], [ null, %12 ], [ %15, %18 ]
  %25 = tail call fastcc ptr @type_lowering(ptr noundef %.069)
  %26 = tail call ptr @llvm_get_type(ptr noundef nonnull %0, ptr noundef %25) #10
  %27 = getelementptr inbounds i8, ptr %0, i64 8
  %28 = load ptr, ptr %27, align 8
  %29 = tail call ptr @LLVMAddGlobal(ptr noundef %28, ptr noundef %26, ptr noundef %13) #10
  %.not79 = icmp eq i32 %17, 0
  br i1 %.not79, label %30, label %34

30:                                               ; preds = %24
  %31 = getelementptr inbounds i8, ptr %0, i64 32
  %32 = load ptr, ptr %31, align 8
  %33 = tail call i32 @LLVMPreferredAlignmentOfGlobal(ptr noundef %32, ptr noundef %29) #10
  br label %34

34:                                               ; preds = %24, %30
  %35 = phi i32 [ %33, %30 ], [ %17, %24 ]
  tail call void @LLVMSetAlignment(ptr noundef %29, i32 noundef %35) #10
  %36 = getelementptr inbounds i8, ptr %1, i64 32
  store ptr %29, ptr %36, align 8
  %37 = load i32, ptr %16, align 8
  tail call void @LLVMSetAlignment(ptr noundef %29, i32 noundef %37) #10
  br i1 %8, label %40, label %38

38:                                               ; preds = %34
  %39 = load ptr, ptr %36, align 8
  tail call void @LLVMSetLinkage(ptr noundef %39, i32 noundef 0) #10
  br label %40

40:                                               ; preds = %38, %34
  %41 = getelementptr inbounds i8, ptr %1, i64 80
  %42 = load i32, ptr %41, align 8
  %43 = and i32 %42, 255
  %44 = icmp eq i32 %43, 0
  br i1 %44, label %45, label %47

45:                                               ; preds = %40
  %46 = load ptr, ptr %36, align 8
  tail call void @LLVMSetGlobalConstant(ptr noundef %46, i32 noundef 1) #10
  br label %47

47:                                               ; preds = %45, %40
  %48 = load ptr, ptr %14, align 8
  %.not80 = icmp eq ptr %48, null
  br i1 %.not80, label %.critedge, label %49

49:                                               ; preds = %47
  %50 = load i32, ptr %48, align 8
  %51 = icmp eq i32 %50, 31
  br i1 %51, label %52, label %56

52:                                               ; preds = %49
  %53 = getelementptr inbounds i8, ptr %48, i64 8
  %54 = load ptr, ptr %53, align 8
  %55 = load i32, ptr %54, align 8
  br label %56

56:                                               ; preds = %52, %49
  %.071 = phi i32 [ %55, %52 ], [ %50, %49 ]
  %57 = icmp eq i32 %.071, 40
  br i1 %57, label %58, label %.critedge

58:                                               ; preds = %56
  tail call void @scratch_buffer_clear() #10
  %59 = getelementptr inbounds i8, ptr %1, i64 8
  %60 = load ptr, ptr %59, align 8
  tail call void @scratch_buffer_append(ptr noundef %60) #10
  tail call void @scratch_buffer_append(ptr noundef nonnull @.str.14) #10
  %61 = tail call ptr @scratch_buffer_to_string() #10
  %62 = load ptr, ptr @type_anyfault, align 8
  %.not81 = icmp eq ptr %62, null
  br i1 %.not81, label %69, label %63

63:                                               ; preds = %58
  %64 = load i32, ptr %62, align 8
  %65 = icmp eq i32 %64, 40
  br i1 %65, label %66, label %69

66:                                               ; preds = %63
  %67 = getelementptr inbounds i8, ptr %62, i64 56
  %68 = load ptr, ptr %67, align 8
  br label %69

69:                                               ; preds = %63, %58, %66
  %.0 = phi ptr [ %68, %66 ], [ null, %58 ], [ %62, %63 ]
  %70 = tail call fastcc ptr @type_lowering(ptr noundef %.0)
  %71 = tail call ptr @llvm_get_type(ptr noundef nonnull %0, ptr noundef %70) #10
  %72 = load ptr, ptr %27, align 8
  %73 = tail call ptr @LLVMAddGlobal(ptr noundef %72, ptr noundef %71, ptr noundef %61) #10
  %74 = getelementptr inbounds i8, ptr %0, i64 32
  %75 = load ptr, ptr %74, align 8
  %76 = tail call i32 @LLVMPreferredAlignmentOfGlobal(ptr noundef %75, ptr noundef %73) #10
  tail call void @LLVMSetAlignment(ptr noundef %73, i32 noundef %76) #10
  %77 = getelementptr inbounds i8, ptr %1, i64 104
  store ptr %73, ptr %77, align 8
  br label %.critedge

.critedge:                                        ; preds = %47, %69, %56
  %78 = load i32, ptr %41, align 8
  %79 = and i32 %78, 262144
  %.not.i = icmp eq i32 %79, 0
  br i1 %.not.i, label %llvm_set_global_tls.exit, label %80

80:                                               ; preds = %.critedge
  %81 = and i32 %78, 131072
  %.not11.i = icmp eq i32 %81, 0
  br i1 %.not11.i, label %82, label %84

82:                                               ; preds = %80
  %83 = tail call zeroext i1 @decl_is_local(ptr noundef nonnull %1) #10
  %spec.select.i = select i1 %83, i32 2, i32 1
  br label %84

84:                                               ; preds = %82, %80
  %.0.i = phi i32 [ 1, %80 ], [ %spec.select.i, %82 ]
  %85 = load ptr, ptr %36, align 8
  tail call void @LLVMSetThreadLocal(ptr noundef %85, i32 noundef 1) #10
  %86 = load ptr, ptr %36, align 8
  tail call void @LLVMSetThreadLocalMode(ptr noundef %86, i32 noundef %.0.i) #10
  %87 = getelementptr inbounds i8, ptr %1, i64 104
  %88 = load ptr, ptr %87, align 8
  %.not12.i = icmp eq ptr %88, null
  br i1 %.not12.i, label %llvm_set_global_tls.exit, label %89

89:                                               ; preds = %84
  tail call void @LLVMSetThreadLocal(ptr noundef nonnull %88, i32 noundef 1) #10
  tail call void @LLVMSetThreadLocalMode(ptr noundef nonnull %88, i32 noundef %.0.i) #10
  br label %llvm_set_global_tls.exit

llvm_set_global_tls.exit:                         ; preds = %.critedge, %84, %89
  ret void
}